target datalayout = "e-m:e-p270:32:32-p271:32:32-p272:64:64-i64:64-i128:128-f80:128-n8:16:32:64-S128"
target triple = "x86_64-pc-linux-gnu"

%struct.mbedtls_mpi = type { ptr, i16, i16 }
%struct.mbedtls_rsa_context = type { i32, i64, %struct.mbedtls_mpi, %struct.mbedtls_mpi, %struct.mbedtls_mpi, %struct.mbedtls_mpi, %struct.mbedtls_mpi, %struct.mbedtls_mpi, %struct.mbedtls_mpi, %struct.mbedtls_mpi, %struct.mbedtls_mpi, %struct.mbedtls_mpi, %struct.mbedtls_mpi, %struct.mbedtls_mpi, %struct.mbedtls_mpi, i32, i32 }

@.str = private unnamed_addr constant [117 x i8] c"generated/home/dtcxzyw/WorkSpace/Projects/compilers/llvm-opt-benchmark/bench/lief/bench_build/mbed_src/library/rsa.c\00", align 1

; Function Attrs: inlinehint nounwind uwtable
define internal i32 @mbedtls_error_add(i32 noundef %0, i32 noundef %1, ptr noundef %2, i32 noundef %3) #3 {
  %5 = alloca i32, align 4
  %6 = alloca i32, align 4
  %7 = alloca ptr, align 8
  %8 = alloca i32, align 4
  store i32 %0, ptr %5, align 4, !tbaa !12
  store i32 %1, ptr %6, align 4, !tbaa !12
  store ptr %2, ptr %7, align 8, !tbaa !8
  store i32 %3, ptr %8, align 4, !tbaa !12
  %9 = load i32, ptr %5, align 4, !tbaa !12
  %10 = load i32, ptr %6, align 4, !tbaa !12
  %11 = add nsw i32 %9, %10
  ret i32 %11
}

; Function Attrs: nounwind uwtable
define hidden i32 @mbedtls_rsa_import(ptr noundef %0, ptr noundef %1, ptr noundef %2, ptr noundef %3, ptr noundef %4, ptr noundef %5) #0 {
  %7 = alloca i32, align 4
  %8 = alloca ptr, align 8
  %9 = alloca ptr, align 8
  %10 = alloca ptr, align 8
  %11 = alloca ptr, align 8
  %12 = alloca ptr, align 8
  %13 = alloca ptr, align 8
  %14 = alloca i32, align 4
  %15 = alloca i32, align 4
  store ptr %0, ptr %8, align 8, !tbaa !3
  store ptr %1, ptr %9, align 8, !tbaa !17
  store ptr %2, ptr %10, align 8, !tbaa !17
  store ptr %3, ptr %11, align 8, !tbaa !17
  store ptr %4, ptr %12, align 8, !tbaa !17
  store ptr %5, ptr %13, align 8, !tbaa !17
  call void @llvm.lifetime.start.p0(i64 4, ptr %14) #9
  store i32 -110, ptr %14, align 4, !tbaa !12
  %16 = load ptr, ptr %9, align 8, !tbaa !17
  %17 = icmp ne ptr %16, null
  br i1 %17, label %18, label %24

18:                                               ; preds = %6
  %19 = load ptr, ptr %8, align 8, !tbaa !3
  %20 = getelementptr inbounds nuw %struct.mbedtls_rsa_context, ptr %19, i32 0, i32 2
  %21 = load ptr, ptr %9, align 8, !tbaa !17
  %22 = call i32 @mbedtls_mpi_copy(ptr noundef %20, ptr noundef %21)
  store i32 %22, ptr %14, align 4, !tbaa !12
  %23 = icmp ne i32 %22, 0
  br i1 %23, label %60, label %24

24:                                               ; preds = %18, %6
  %25 = load ptr, ptr %10, align 8, !tbaa !17
  %26 = icmp ne ptr %25, null
  br i1 %26, label %27, label %33

27:                                               ; preds = %24
  %28 = load ptr, ptr %8, align 8, !tbaa !3
  %29 = getelementptr inbounds nuw %struct.mbedtls_rsa_context, ptr %28, i32 0, i32 5
  %30 = load ptr, ptr %10, align 8, !tbaa !17
  %31 = call i32 @mbedtls_mpi_copy(ptr noundef %29, ptr noundef %30)
  store i32 %31, ptr %14, align 4, !tbaa !12
  %32 = icmp ne i32 %31, 0
  br i1 %32, label %60, label %33

33:                                               ; preds = %27, %24
  %34 = load ptr, ptr %11, align 8, !tbaa !17
  %35 = icmp ne ptr %34, null
  br i1 %35, label %36, label %42

36:                                               ; preds = %33
  %37 = load ptr, ptr %8, align 8, !tbaa !3
  %38 = getelementptr inbounds nuw %struct.mbedtls_rsa_context, ptr %37, i32 0, i32 6
  %39 = load ptr, ptr %11, align 8, !tbaa !17
  %40 = call i32 @mbedtls_mpi_copy(ptr noundef %38, ptr noundef %39)
  store i32 %40, ptr %14, align 4, !tbaa !12
  %41 = icmp ne i32 %40, 0
  br i1 %41, label %60, label %42

42:                                               ; preds = %36, %33
  %43 = load ptr, ptr %12, align 8, !tbaa !17
  %44 = icmp ne ptr %43, null
  br i1 %44, label %45, label %51

45:                                               ; preds = %42
  %46 = load ptr, ptr %8, align 8, !tbaa !3
  %47 = getelementptr inbounds nuw %struct.mbedtls_rsa_context, ptr %46, i32 0, i32 4
  %48 = load ptr, ptr %12, align 8, !tbaa !17
  %49 = call i32 @mbedtls_mpi_copy(ptr noundef %47, ptr noundef %48)
  store i32 %49, ptr %14, align 4, !tbaa !12
  %50 = icmp ne i32 %49, 0
  br i1 %50, label %60, label %51

51:                                               ; preds = %45, %42
  %52 = load ptr, ptr %13, align 8, !tbaa !17
  %53 = icmp ne ptr %52, null
  br i1 %53, label %54, label %63

54:                                               ; preds = %51
  %55 = load ptr, ptr %8, align 8, !tbaa !3
  %56 = getelementptr inbounds nuw %struct.mbedtls_rsa_context, ptr %55, i32 0, i32 3
  %57 = load ptr, ptr %13, align 8, !tbaa !17
  %58 = call i32 @mbedtls_mpi_copy(ptr noundef %56, ptr noundef %57)
  store i32 %58, ptr %14, align 4, !tbaa !12
  %59 = icmp ne i32 %58, 0
  br i1 %59, label %60, label %63

60:                                               ; preds = %54, %45, %36, %27, %18
  %61 = load i32, ptr %14, align 4, !tbaa !12
  %62 = call i32 @mbedtls_error_add(i32 noundef -16512, i32 noundef %61, ptr noundef @.str, i32 noundef 584)
  store i32 %62, ptr %7, align 4
  store i32 1, ptr %15, align 4
  br label %73

63:                                               ; preds = %54, %51
  %64 = load ptr, ptr %9, align 8, !tbaa !17
  %65 = icmp ne ptr %64, null
  br i1 %65, label %66, label %72

66:                                               ; preds = %63
  %67 = load ptr, ptr %8, align 8, !tbaa !3
  %68 = getelementptr inbounds nuw %struct.mbedtls_rsa_context, ptr %67, i32 0, i32 2
  %69 = call i64 @mbedtls_mpi_size(ptr noundef %68)
  %70 = load ptr, ptr %8, align 8, !tbaa !3
  %71 = getelementptr inbounds nuw %struct.mbedtls_rsa_context, ptr %70, i32 0, i32 1
  store i64 %69, ptr %71, align 8, !tbaa !19
  br label %72

72:                                               ; preds = %66, %63
  store i32 0, ptr %7, align 4
  store i32 1, ptr %15, align 4
  br label %73

73:                                               ; preds = %72, %60
  call void @llvm.lifetime.end.p0(i64 4, ptr %14) #9
  %74 = load i32, ptr %7, align 4
  ret i32 %74
}

; Function Attrs: nounwind uwtable
define hidden i32 @mbedtls_rsa_parse_key(ptr noundef %0, ptr noundef %1, i64 noundef %2) #0 {
  %4 = alloca i32, align 4
  %5 = alloca ptr, align 8
  %6 = alloca ptr, align 8
  %7 = alloca i64, align 8
  %8 = alloca i32, align 4
  %9 = alloca i32, align 4
  %10 = alloca i64, align 8
  %11 = alloca ptr, align 8
  %12 = alloca ptr, align 8
  %13 = alloca %struct.mbedtls_mpi, align 8
  %14 = alloca i32, align 4
  store ptr %0, ptr %5, align 8, !tbaa !3
  store ptr %1, ptr %6, align 8, !tbaa !8
  store i64 %2, ptr %7, align 8, !tbaa !10
  call void @llvm.lifetime.start.p0(i64 4, ptr %8) #9
  call void @llvm.lifetime.start.p0(i64 4, ptr %9) #9
  call void @llvm.lifetime.start.p0(i64 8, ptr %10) #9
  call void @llvm.lifetime.start.p0(i64 8, ptr %11) #9
  call void @llvm.lifetime.start.p0(i64 8, ptr %12) #9
  call void @llvm.lifetime.start.p0(i64 16, ptr %13) #9
  call void @mbedtls_mpi_init(ptr noundef %13)
  %15 = load ptr, ptr %6, align 8, !tbaa !8
  store ptr %15, ptr %11, align 8, !tbaa !8
  %16 = load ptr, ptr %11, align 8, !tbaa !8
  %17 = load i64, ptr %7, align 8, !tbaa !10
  %18 = getelementptr inbounds nuw i8, ptr %16, i64 %17
  store ptr %18, ptr %12, align 8, !tbaa !8
  %19 = load ptr, ptr %12, align 8, !tbaa !8
  %20 = call i32 @mbedtls_asn1_get_tag(ptr noundef %11, ptr noundef %19, ptr noundef %10, i32 noundef 48)
  store i32 %20, ptr %8, align 4, !tbaa !12
  %21 = icmp ne i32 %20, 0
  br i1 %21, label %22, label %24

22:                                               ; preds = %3
  %23 = load i32, ptr %8, align 4, !tbaa !12
  store i32 %23, ptr %4, align 4
  store i32 1, ptr %14, align 4
  br label %138

24:                                               ; preds = %3
  %25 = load ptr, ptr %12, align 8, !tbaa !8
  %26 = load ptr, ptr %11, align 8, !tbaa !8
  %27 = load i64, ptr %10, align 8, !tbaa !10
  %28 = getelementptr inbounds nuw i8, ptr %26, i64 %27
  %29 = icmp ne ptr %25, %28
  br i1 %29, label %30, label %31

30:                                               ; preds = %24
  store i32 -16512, ptr %4, align 4
  store i32 1, ptr %14, align 4
  br label %138

31:                                               ; preds = %24
  %32 = load ptr, ptr %12, align 8, !tbaa !8
  %33 = call i32 @mbedtls_asn1_get_int(ptr noundef %11, ptr noundef %32, ptr noundef %9)
  store i32 %33, ptr %8, align 4, !tbaa !12
  %34 = icmp ne i32 %33, 0
  br i1 %34, label %35, label %37

35:                                               ; preds = %31
  %36 = load i32, ptr %8, align 4, !tbaa !12
  store i32 %36, ptr %4, align 4
  store i32 1, ptr %14, align 4
  br label %138

37:                                               ; preds = %31
  %38 = load i32, ptr %9, align 4, !tbaa !12
  %39 = icmp ne i32 %38, 0
  br i1 %39, label %40, label %41

40:                                               ; preds = %37
  store i32 -16512, ptr %4, align 4
  store i32 1, ptr %14, align 4
  br label %138

41:                                               ; preds = %37
  %42 = load ptr, ptr %12, align 8, !tbaa !8
  %43 = call i32 @asn1_get_nonzero_mpi(ptr noundef %11, ptr noundef %42, ptr noundef %13)
  store i32 %43, ptr %8, align 4, !tbaa !12
  %44 = icmp ne i32 %43, 0
  br i1 %44, label %49, label %45

45:                                               ; preds = %41
  %46 = load ptr, ptr %5, align 8, !tbaa !3
  %47 = call i32 @mbedtls_rsa_import(ptr noundef %46, ptr noundef %13, ptr noundef null, ptr noundef null, ptr noundef null, ptr noundef null)
  store i32 %47, ptr %8, align 4, !tbaa !12
  %48 = icmp ne i32 %47, 0
  br i1 %48, label %49, label %50

49:                                               ; preds = %45, %41
  br label %131

50:                                               ; preds = %45
  %51 = load ptr, ptr %12, align 8, !tbaa !8
  %52 = call i32 @asn1_get_nonzero_mpi(ptr noundef %11, ptr noundef %51, ptr noundef %13)
  store i32 %52, ptr %8, align 4, !tbaa !12
  %53 = icmp ne i32 %52, 0
  br i1 %53, label %58, label %54

54:                                               ; preds = %50
  %55 = load ptr, ptr %5, align 8, !tbaa !3
  %56 = call i32 @mbedtls_rsa_import(ptr noundef %55, ptr noundef null, ptr noundef null, ptr noundef null, ptr noundef null, ptr noundef %13)
  store i32 %56, ptr %8, align 4, !tbaa !12
  %57 = icmp ne i32 %56, 0
  br i1 %57, label %58, label %59

58:                                               ; preds = %54, %50
  br label %131

59:                                               ; preds = %54
  %60 = load ptr, ptr %12, align 8, !tbaa !8
  %61 = call i32 @asn1_get_nonzero_mpi(ptr noundef %11, ptr noundef %60, ptr noundef %13)
  store i32 %61, ptr %8, align 4, !tbaa !12
  %62 = icmp ne i32 %61, 0
  br i1 %62, label %67, label %63

63:                                               ; preds = %59
  %64 = load ptr, ptr %5, align 8, !tbaa !3
  %65 = call i32 @mbedtls_rsa_import(ptr noundef %64, ptr noundef null, ptr noundef null, ptr noundef null, ptr noundef %13, ptr noundef null)
  store i32 %65, ptr %8, align 4, !tbaa !12
  %66 = icmp ne i32 %65, 0
  br i1 %66, label %67, label %68

67:                                               ; preds = %63, %59
  br label %131

68:                                               ; preds = %63
  %69 = load ptr, ptr %12, align 8, !tbaa !8
  %70 = call i32 @asn1_get_nonzero_mpi(ptr noundef %11, ptr noundef %69, ptr noundef %13)
  store i32 %70, ptr %8, align 4, !tbaa !12
  %71 = icmp ne i32 %70, 0
  br i1 %71, label %76, label %72

72:                                               ; preds = %68
  %73 = load ptr, ptr %5, align 8, !tbaa !3
  %74 = call i32 @mbedtls_rsa_import(ptr noundef %73, ptr noundef null, ptr noundef %13, ptr noundef null, ptr noundef null, ptr noundef null)
  store i32 %74, ptr %8, align 4, !tbaa !12
  %75 = icmp ne i32 %74, 0
  br i1 %75, label %76, label %77

76:                                               ; preds = %72, %68
  br label %131

77:                                               ; preds = %72
  %78 = load ptr, ptr %12, align 8, !tbaa !8
  %79 = call i32 @asn1_get_nonzero_mpi(ptr noundef %11, ptr noundef %78, ptr noundef %13)
  store i32 %79, ptr %8, align 4, !tbaa !12
  %80 = icmp ne i32 %79, 0
  br i1 %80, label %85, label %81

81:                                               ; preds = %77
  %82 = load ptr, ptr %5, align 8, !tbaa !3
  %83 = call i32 @mbedtls_rsa_import(ptr noundef %82, ptr noundef null, ptr noundef null, ptr noundef %13, ptr noundef null, ptr noundef null)
  store i32 %83, ptr %8, align 4, !tbaa !12
  %84 = icmp ne i32 %83, 0
  br i1 %84, label %85, label %86

85:                                               ; preds = %81, %77
  br label %131

86:                                               ; preds = %81
  %87 = load ptr, ptr %12, align 8, !tbaa !8
  %88 = call i32 @asn1_get_nonzero_mpi(ptr noundef %11, ptr noundef %87, ptr noundef %13)
  store i32 %88, ptr %8, align 4, !tbaa !12
  %89 = icmp ne i32 %88, 0
  br i1 %89, label %95, label %90

90:                                               ; preds = %86
  %91 = load ptr, ptr %5, align 8, !tbaa !3
  %92 = getelementptr inbounds nuw %struct.mbedtls_rsa_context, ptr %91, i32 0, i32 7
  %93 = call i32 @mbedtls_mpi_copy(ptr noundef %92, ptr noundef %13)
  store i32 %93, ptr %8, align 4, !tbaa !12
  %94 = icmp ne i32 %93, 0
  br i1 %94, label %95, label %96

95:                                               ; preds = %90, %86
  br label %131

96:                                               ; preds = %90
  %97 = load ptr, ptr %12, align 8, !tbaa !8
  %98 = call i32 @asn1_get_nonzero_mpi(ptr noundef %11, ptr noundef %97, ptr noundef %13)
  store i32 %98, ptr %8, align 4, !tbaa !12
  %99 = icmp ne i32 %98, 0
  br i1 %99, label %105, label %100

100:                                              ; preds = %96
  %101 = load ptr, ptr %5, align 8, !tbaa !3
  %102 = getelementptr inbounds nuw %struct.mbedtls_rsa_context, ptr %101, i32 0, i32 8
  %103 = call i32 @mbedtls_mpi_copy(ptr noundef %102, ptr noundef %13)
  store i32 %103, ptr %8, align 4, !tbaa !12
  %104 = icmp ne i32 %103, 0
  br i1 %104, label %105, label %106

105:                                              ; preds = %100, %96
  br label %131

106:                                              ; preds = %100
  %107 = load ptr, ptr %12, align 8, !tbaa !8
  %108 = call i32 @asn1_get_nonzero_mpi(ptr noundef %11, ptr noundef %107, ptr noundef %13)
  store i32 %108, ptr %8, align 4, !tbaa !12
  %109 = icmp ne i32 %108, 0
  br i1 %109, label %115, label %110

110:                                              ; preds = %106
  %111 = load ptr, ptr %5, align 8, !tbaa !3
  %112 = getelementptr inbounds nuw %struct.mbedtls_rsa_context, ptr %111, i32 0, i32 9
  %113 = call i32 @mbedtls_mpi_copy(ptr noundef %112, ptr noundef %13)
  store i32 %113, ptr %8, align 4, !tbaa !12
  %114 = icmp ne i32 %113, 0
  br i1 %114, label %115, label %116

115:                                              ; preds = %110, %106
  br label %131

116:                                              ; preds = %110
  %117 = load ptr, ptr %5, align 8, !tbaa !3
  %118 = call i32 @mbedtls_rsa_complete(ptr noundef %117)
  store i32 %118, ptr %8, align 4, !tbaa !12
  %119 = icmp ne i32 %118, 0
  br i1 %119, label %124, label %120

120:                                              ; preds = %116
  %121 = load ptr, ptr %5, align 8, !tbaa !3
  %122 = call i32 @mbedtls_rsa_check_pubkey(ptr noundef %121)
  store i32 %122, ptr %8, align 4, !tbaa !12
  %123 = icmp ne i32 %122, 0
  br i1 %123, label %124, label %125

124:                                              ; preds = %120, %116
  br label %131

125:                                              ; preds = %120
  %126 = load ptr, ptr %11, align 8, !tbaa !8
  %127 = load ptr, ptr %12, align 8, !tbaa !8
  %128 = icmp ne ptr %126, %127
  br i1 %128, label %129, label %130

129:                                              ; preds = %125
  store i32 -102, ptr %8, align 4, !tbaa !12
  br label %130

130:                                              ; preds = %129, %125
  br label %131

131:                                              ; preds = %130, %124, %115, %105, %95, %85, %76, %67, %58, %49
  call void @mbedtls_mpi_free(ptr noundef %13)
  %132 = load i32, ptr %8, align 4, !tbaa !12
  %133 = icmp ne i32 %132, 0
  br i1 %133, label %134, label %136

134:                                              ; preds = %131
  %135 = load ptr, ptr %5, align 8, !tbaa !3
  call void @mbedtls_rsa_free(ptr noundef %135)
  br label %136

136:                                              ; preds = %134, %131
  %137 = load i32, ptr %8, align 4, !tbaa !12
  store i32 %137, ptr %4, align 4
  store i32 1, ptr %14, align 4
  br label %138

138:                                              ; preds = %136, %40, %35, %30, %22
  call void @llvm.lifetime.end.p0(i64 16, ptr %13) #9
  call void @llvm.lifetime.end.p0(i64 8, ptr %12) #9
  call void @llvm.lifetime.end.p0(i64 8, ptr %11) #9
  call void @llvm.lifetime.end.p0(i64 8, ptr %10) #9
  call void @llvm.lifetime.end.p0(i64 4, ptr %9) #9
  call void @llvm.lifetime.end.p0(i64 4, ptr %8) #9
  %139 = load i32, ptr %4, align 4
  ret i32 %139
}