; Function Attrs: nounwind uwtable
define hidden i32 @mbedtls_rsa_parse_key(ptr noundef %0, ptr noundef %1, i64 noundef %2) local_unnamed_addr #0 {
  %4 = alloca i32, align 4
  %5 = alloca i64, align 8
  %6 = alloca ptr, align 8
  %7 = alloca %struct.mbedtls_mpi, align 8
  call void @llvm.lifetime.start.p0(i64 4, ptr nonnull %4) #14
  call void @llvm.lifetime.start.p0(i64 8, ptr nonnull %5) #14
  call void @llvm.lifetime.start.p0(i64 8, ptr nonnull %6) #14
  call void @llvm.lifetime.start.p0(i64 16, ptr nonnull %7) #14
  call void @mbedtls_mpi_init(ptr noundef nonnull %7) #14
  store ptr %1, ptr %6, align 8, !tbaa !3
  %8 = getelementptr inbounds nuw i8, ptr %1, i64 %2
  %9 = call i32 @mbedtls_asn1_get_tag(ptr noundef nonnull %6, ptr noundef %8, ptr noundef nonnull %5, i32 noundef 48) #14
  %.not = icmp eq i32 %9, 0
  br i1 %.not, label %10, label %69

10:                                               ; preds = %3
  %11 = load ptr, ptr %6, align 8, !tbaa !3
  %12 = load i64, ptr %5, align 8, !tbaa !8
  %13 = getelementptr inbounds nuw i8, ptr %11, i64 %12
  %.not51 = icmp eq ptr %8, %13
  br i1 %.not51, label %14, label %69

14:                                               ; preds = %10
  %15 = call i32 @mbedtls_asn1_get_int(ptr noundef nonnull %6, ptr noundef %8, ptr noundef nonnull %4) #14
  %.not52 = icmp eq i32 %15, 0
  br i1 %.not52, label %16, label %69

16:                                               ; preds = %14
  %17 = load i32, ptr %4, align 4, !tbaa !10
  %.not53 = icmp eq i32 %17, 0
  br i1 %.not53, label %18, label %69

18:                                               ; preds = %16
  %19 = call fastcc i32 @asn1_get_nonzero_mpi(ptr noundef %6, ptr noundef %8, ptr noundef %7)
  %.not54 = icmp eq i32 %19, 0
  br i1 %.not54, label %20, label %.thread

20:                                               ; preds = %18
  %21 = getelementptr inbounds nuw i8, ptr %0, i64 16
  %22 = call i32 @mbedtls_mpi_copy(ptr noundef nonnull %21, ptr noundef nonnull %7) #14
  %.not30.i = icmp eq i32 %22, 0
  br i1 %.not30.i, label %mbedtls_rsa_import.exit.thread, label %mbedtls_rsa_import.exit

mbedtls_rsa_import.exit.thread:                   ; preds = %20
  %23 = call i64 @mbedtls_mpi_size(ptr noundef nonnull %21) #14
  %24 = getelementptr inbounds nuw i8, ptr %0, i64 8
  store i64 %23, ptr %24, align 8, !tbaa !12
  br label %26

mbedtls_rsa_import.exit:                          ; preds = %20
  %25 = add nsw i32 %22, -16512
  %.not55 = icmp eq i32 %25, 0
  br i1 %.not55, label %26, label %67

26:                                               ; preds = %mbedtls_rsa_import.exit.thread, %mbedtls_rsa_import.exit
  %27 = call fastcc i32 @asn1_get_nonzero_mpi(ptr noundef %6, ptr noundef %8, ptr noundef %7)
  %.not56 = icmp eq i32 %27, 0
  br i1 %.not56, label %28, label %.thread

28:                                               ; preds = %26
  %29 = getelementptr inbounds nuw i8, ptr %0, i64 32
  %30 = call i32 @mbedtls_mpi_copy(ptr noundef nonnull %29, ptr noundef nonnull %7) #14
  %.not38.i = icmp eq i32 %30, 0
  %31 = add nsw i32 %30, -16512
  %.not57 = icmp eq i32 %31, 0
  %or.cond = select i1 %.not38.i, i1 true, i1 %.not57
  br i1 %or.cond, label %mbedtls_rsa_import.exit75.thread, label %67

mbedtls_rsa_import.exit75.thread:                 ; preds = %28
  %32 = call fastcc i32 @asn1_get_nonzero_mpi(ptr noundef %6, ptr noundef %8, ptr noundef %7)
  %.not58 = icmp eq i32 %32, 0
  br i1 %.not58, label %33, label %.thread

33:                                               ; preds = %mbedtls_rsa_import.exit75.thread
  %34 = getelementptr inbounds nuw i8, ptr %0, i64 48
  %35 = call i32 @mbedtls_mpi_copy(ptr noundef nonnull %34, ptr noundef nonnull %7) #14
  %.not36.i = icmp eq i32 %35, 0
  %36 = add nsw i32 %35, -16512
  %.not59 = icmp eq i32 %36, 0
  %or.cond98 = select i1 %.not36.i, i1 true, i1 %.not59
  br i1 %or.cond98, label %mbedtls_rsa_import.exit77.thread, label %67

mbedtls_rsa_import.exit77.thread:                 ; preds = %33
  %37 = call fastcc i32 @asn1_get_nonzero_mpi(ptr noundef %6, ptr noundef %8, ptr noundef %7)
  %.not60 = icmp eq i32 %37, 0
  br i1 %.not60, label %38, label %.thread

38:                                               ; preds = %mbedtls_rsa_import.exit77.thread
  %39 = getelementptr inbounds nuw i8, ptr %0, i64 64
  %40 = call i32 @mbedtls_mpi_copy(ptr noundef nonnull %39, ptr noundef nonnull %7) #14
  %.not32.i = icmp eq i32 %40, 0
  %41 = add nsw i32 %40, -16512
  %.not61 = icmp eq i32 %41, 0
  %or.cond99 = select i1 %.not32.i, i1 true, i1 %.not61
  br i1 %or.cond99, label %mbedtls_rsa_import.exit79.thread, label %67

mbedtls_rsa_import.exit79.thread:                 ; preds = %38
  %42 = call fastcc i32 @asn1_get_nonzero_mpi(ptr noundef %6, ptr noundef %8, ptr noundef %7)
  %.not62 = icmp eq i32 %42, 0
  br i1 %.not62, label %43, label %.thread

43:                                               ; preds = %mbedtls_rsa_import.exit79.thread
  %44 = getelementptr inbounds nuw i8, ptr %0, i64 80
  %45 = call i32 @mbedtls_mpi_copy(ptr noundef nonnull %44, ptr noundef nonnull %7) #14
  %.not34.i = icmp eq i32 %45, 0
  %46 = add nsw i32 %45, -16512
  %.not63 = icmp eq i32 %46, 0
  %or.cond100 = select i1 %.not34.i, i1 true, i1 %.not63
  br i1 %or.cond100, label %mbedtls_rsa_import.exit81.thread, label %67

mbedtls_rsa_import.exit81.thread:                 ; preds = %43
  %47 = call fastcc i32 @asn1_get_nonzero_mpi(ptr noundef %6, ptr noundef %8, ptr noundef %7)
  %.not64 = icmp eq i32 %47, 0
  br i1 %.not64, label %48, label %.thread

48:                                               ; preds = %mbedtls_rsa_import.exit81.thread
  %49 = getelementptr inbounds nuw i8, ptr %0, i64 96
  %50 = call i32 @mbedtls_mpi_copy(ptr noundef nonnull %49, ptr noundef nonnull %7) #14
  %.not65 = icmp eq i32 %50, 0
  br i1 %.not65, label %51, label %.thread

51:                                               ; preds = %48
  %52 = call fastcc i32 @asn1_get_nonzero_mpi(ptr noundef %6, ptr noundef %8, ptr noundef %7)
  %.not66 = icmp eq i32 %52, 0
  br i1 %.not66, label %53, label %.thread

53:                                               ; preds = %51
  %54 = getelementptr inbounds nuw i8, ptr %0, i64 112
  %55 = call i32 @mbedtls_mpi_copy(ptr noundef nonnull %54, ptr noundef nonnull %7) #14
  %.not67 = icmp eq i32 %55, 0
  br i1 %.not67, label %56, label %.thread

56:                                               ; preds = %53
  %57 = call fastcc i32 @asn1_get_nonzero_mpi(ptr noundef %6, ptr noundef %8, ptr noundef %7)
  %.not68 = icmp eq i32 %57, 0
  br i1 %.not68, label %58, label %.thread

58:                                               ; preds = %56
  %59 = getelementptr inbounds nuw i8, ptr %0, i64 128
  %60 = call i32 @mbedtls_mpi_copy(ptr noundef nonnull %59, ptr noundef nonnull %7) #14
  %.not69 = icmp eq i32 %60, 0
  br i1 %.not69, label %61, label %.thread

61:                                               ; preds = %58
  %62 = call i32 @mbedtls_rsa_complete(ptr noundef nonnull %0)
  %.not70 = icmp eq i32 %62, 0
  br i1 %.not70, label %63, label %67

63:                                               ; preds = %61
  %64 = call i32 @mbedtls_rsa_check_pubkey(ptr noundef nonnull %0)
  %.not71 = icmp eq i32 %64, 0
  br i1 %.not71, label %65, label %.thread

65:                                               ; preds = %63
  %66 = load ptr, ptr %6, align 8, !tbaa !3
  %.not72 = icmp eq ptr %66, %8
  br i1 %.not72, label %.thread95, label %.thread

.thread95:                                        ; preds = %65
  call void @mbedtls_mpi_free(ptr noundef nonnull %7) #14
  br label %69

.thread:                                          ; preds = %18, %26, %mbedtls_rsa_import.exit75.thread, %mbedtls_rsa_import.exit77.thread, %mbedtls_rsa_import.exit79.thread, %mbedtls_rsa_import.exit81.thread, %48, %51, %53, %56, %58, %63, %65
  %.029.ph = phi i32 [ -102, %65 ], [ %64, %63 ], [ %60, %58 ], [ %57, %56 ], [ %55, %53 ], [ %52, %51 ], [ %50, %48 ], [ %47, %mbedtls_rsa_import.exit81.thread ], [ %42, %mbedtls_rsa_import.exit79.thread ], [ %37, %mbedtls_rsa_import.exit77.thread ], [ %32, %mbedtls_rsa_import.exit75.thread ], [ %27, %26 ], [ %19, %18 ]
  call void @mbedtls_mpi_free(ptr noundef nonnull %7) #14
  br label %68

67:                                               ; preds = %43, %38, %33, %28, %61, %mbedtls_rsa_import.exit
  %.029 = phi i32 [ %25, %mbedtls_rsa_import.exit ], [ %62, %61 ], [ %31, %28 ], [ %36, %33 ], [ %41, %38 ], [ %46, %43 ]
  call void @mbedtls_mpi_free(ptr noundef nonnull %7) #14
  %.not73 = icmp eq i32 %.029, 0
  br i1 %.not73, label %69, label %68

68:                                               ; preds = %.thread, %67
  %.02994 = phi i32 [ %.029.ph, %.thread ], [ %.029, %67 ]
  call void @mbedtls_rsa_free(ptr noundef %0)
  br label %69

69:                                               ; preds = %.thread95, %67, %68, %16, %14, %10, %3
  %.0 = phi i32 [ %9, %3 ], [ -16512, %10 ], [ %15, %14 ], [ -16512, %16 ], [ %.02994, %68 ], [ 0, %67 ], [ 0, %.thread95 ]
  call void @llvm.lifetime.end.p0(i64 16, ptr nonnull %7) #14
  call void @llvm.lifetime.end.p0(i64 8, ptr nonnull %6) #14
  call void @llvm.lifetime.end.p0(i64 8, ptr nonnull %5) #14
  call void @llvm.lifetime.end.p0(i64 4, ptr nonnull %4) #14
  ret i32 %.0
}